; Function Attrs: nounwind uwtable
define range(i32 -1, -2147483648) i32 @gzputs(ptr noundef %0, ptr noundef %1) local_unnamed_addr #0 {
  %3 = icmp eq ptr %0, null
  br i1 %3, label %18, label %4

4:                                                ; preds = %2
  %5 = getelementptr inbounds nuw i8, ptr %0, i64 24
  %6 = load i32, ptr %5, align 8, !tbaa !3
  %.not = icmp eq i32 %6, 31153
  br i1 %.not, label %7, label %18

7:                                                ; preds = %4
  %8 = getelementptr inbounds nuw i8, ptr %0, i64 116
  %9 = load i32, ptr %8, align 4, !tbaa !14
  %.not18 = icmp eq i32 %9, 0
  br i1 %.not18, label %10, label %18

10:                                               ; preds = %7
  %11 = tail call i64 @strlen(ptr noundef nonnull dereferenceable(1) %1) #15
  %or.cond = icmp ult i64 %11, 2147483648
  br i1 %or.cond, label %13, label %12

12:                                               ; preds = %10
  tail call void @gz_error(ptr noundef nonnull %0, i32 noundef -2, ptr noundef nonnull @.str.2) #14
  br label %18

13:                                               ; preds = %10
  %14 = trunc nuw i64 %11 to i32
  %15 = tail call fastcc i64 @gz_write(ptr noundef %0, ptr noundef nonnull %1, i64 noundef %11)
  %16 = icmp ult i64 %15, %11
  %17 = select i1 %16, i32 -1, i32 %14
  br label %18

18:                                               ; preds = %4, %7, %2, %13, %12
  %.0 = phi i32 [ -1, %12 ], [ %17, %13 ], [ -1, %2 ], [ -1, %7 ], [ -1, %4 ]
  ret i32 %.0
}